; Function Attrs: mustprogress uwtable
define dso_local { <2 x float>, <2 x float> } @_ZNK21btUniformScalingShape24localGetSupportingVertexERK9btVector3(ptr nocapture noundef nonnull readonly align 8 dereferenceable(44) %this, ptr noundef nonnull align 4 dereferenceable(16) %vec) unnamed_addr #4 align 2 {
entry:
  %m_childConvexShape = getelementptr inbounds i8, ptr %this, i64 32
  %0 = load ptr, ptr %m_childConvexShape, align 8
  %vtable = load ptr, ptr %0, align 8
  %vfn = getelementptr inbounds i8, ptr %vtable, i64 128
  %1 = load ptr, ptr %vfn, align 8
  %call = tail call { <2 x float>, <2 x float> } %1(ptr noundef nonnull align 8 dereferenceable(32) %0, ptr noundef nonnull align 4 dereferenceable(16) %vec)
  %2 = extractvalue { <2 x float>, <2 x float> } %call, 0
  %3 = extractvalue { <2 x float>, <2 x float> } %call, 1
  %m_uniformScalingFactor = getelementptr inbounds i8, ptr %this, i64 40
  %4 = load float, ptr %m_uniformScalingFactor, align 8
  %5 = insertelement <2 x float> poison, float %4, i64 0
  %6 = shufflevector <2 x float> %5, <2 x float> poison, <2 x i32> zeroinitializer
  %7 = fmul <2 x float> %6, %2
  %tmpVertex.sroa.3.8.vec.extract = extractelement <2 x float> %3, i64 0
  %mul8.i = fmul float %4, %tmpVertex.sroa.3.8.vec.extract
  %retval.sroa.3.12.vec.insert.i = insertelement <2 x float> <float poison, float 0.000000e+00>, float %mul8.i, i64 0
  %.fca.0.insert.i = insertvalue { <2 x float>, <2 x float> } poison, <2 x float> %7, 0
  %.fca.1.insert.i = insertvalue { <2 x float>, <2 x float> } %.fca.0.insert.i, <2 x float> %retval.sroa.3.12.vec.insert.i, 1
  ret { <2 x float>, <2 x float> } %.fca.1.insert.i
}